target datalayout = "e-m:e-p270:32:32-p271:32:32-p272:64:64-i64:64-i128:128-f80:128-n8:16:32:64-S128"
target triple = "x86_64-pc-linux-gnu"

%struct.OSQPSolver = type { ptr, ptr, ptr, ptr }
%struct.OSQPWorkspace_ = type { ptr, ptr, ptr, ptr, ptr, ptr, ptr, ptr, ptr, ptr, ptr, ptr, ptr, ptr, ptr, ptr, ptr, ptr, ptr, ptr, ptr, ptr, ptr, ptr, ptr, ptr, double, double, double, ptr, i64, i64, i64, i64, ptr }
%struct.OSQPData = type { i64, i64, ptr, ptr, ptr, ptr, ptr }
%struct.OSQPSettings = type { i64, i32, i64, i64, i64, i64, i64, i64, double, i64, double, double, i64, i64, double, i32, i64, i64, double, double, i64, double, double, double, double, i64, i64, double, double, i64 }
%struct.linsys_solver = type { i32, ptr, ptr, ptr, ptr, ptr, ptr, ptr, ptr, i64 }

; Function Attrs: nounwind uwtable
define internal void @compute_rhs(ptr noundef %0) #0 {
  %2 = alloca ptr, align 8
  %3 = alloca ptr, align 8
  %4 = alloca ptr, align 8
  store ptr %0, ptr %2, align 8
  %5 = load ptr, ptr %2, align 8
  %6 = getelementptr inbounds %struct.OSQPSolver, ptr %5, i32 0, i32 3
  %7 = load ptr, ptr %6, align 8
  store ptr %7, ptr %3, align 8
  %8 = load ptr, ptr %2, align 8
  %9 = getelementptr inbounds %struct.OSQPSolver, ptr %8, i32 0, i32 0
  %10 = load ptr, ptr %9, align 8
  store ptr %10, ptr %4, align 8
  %11 = load ptr, ptr %3, align 8
  %12 = getelementptr inbounds %struct.OSQPWorkspace_, ptr %11, i32 0, i32 10
  %13 = load ptr, ptr %12, align 8
  %14 = load ptr, ptr %4, align 8
  %15 = getelementptr inbounds %struct.OSQPSettings, ptr %14, i32 0, i32 10
  %16 = load double, ptr %15, align 8
  %17 = load ptr, ptr %3, align 8
  %18 = getelementptr inbounds %struct.OSQPWorkspace_, ptr %17, i32 0, i32 12
  %19 = load ptr, ptr %18, align 8
  %20 = load ptr, ptr %3, align 8
  %21 = getelementptr inbounds %struct.OSQPWorkspace_, ptr %20, i32 0, i32 0
  %22 = load ptr, ptr %21, align 8
  %23 = getelementptr inbounds %struct.OSQPData, ptr %22, i32 0, i32 4
  %24 = load ptr, ptr %23, align 8
  call void @OSQPVectorf_add_scaled(ptr noundef %13, double noundef %16, ptr noundef %19, double noundef -1.000000e+00, ptr noundef %24)
  %25 = load ptr, ptr %4, align 8
  %26 = getelementptr inbounds %struct.OSQPSettings, ptr %25, i32 0, i32 9
  %27 = load i64, ptr %26, align 8
  %28 = icmp ne i64 %27, 0
  br i1 %28, label %29, label %48

29:                                               ; preds = %1
  %30 = load ptr, ptr %3, align 8
  %31 = getelementptr inbounds %struct.OSQPWorkspace_, ptr %30, i32 0, i32 11
  %32 = load ptr, ptr %31, align 8
  %33 = load ptr, ptr %3, align 8
  %34 = getelementptr inbounds %struct.OSQPWorkspace_, ptr %33, i32 0, i32 4
  %35 = load ptr, ptr %34, align 8
  %36 = load ptr, ptr %3, align 8
  %37 = getelementptr inbounds %struct.OSQPWorkspace_, ptr %36, i32 0, i32 7
  %38 = load ptr, ptr %37, align 8
  call void @OSQPVectorf_ew_prod(ptr noundef %32, ptr noundef %35, ptr noundef %38)
  %39 = load ptr, ptr %3, align 8
  %40 = getelementptr inbounds %struct.OSQPWorkspace_, ptr %39, i32 0, i32 11
  %41 = load ptr, ptr %40, align 8
  %42 = load ptr, ptr %3, align 8
  %43 = getelementptr inbounds %struct.OSQPWorkspace_, ptr %42, i32 0, i32 11
  %44 = load ptr, ptr %43, align 8
  %45 = load ptr, ptr %3, align 8
  %46 = getelementptr inbounds %struct.OSQPWorkspace_, ptr %45, i32 0, i32 13
  %47 = load ptr, ptr %46, align 8
  call void @OSQPVectorf_add_scaled(ptr noundef %41, double noundef -1.000000e+00, ptr noundef %44, double noundef 1.000000e+00, ptr noundef %47)
  br label %62

48:                                               ; preds = %1
  %49 = load ptr, ptr %3, align 8
  %50 = getelementptr inbounds %struct.OSQPWorkspace_, ptr %49, i32 0, i32 11
  %51 = load ptr, ptr %50, align 8
  %52 = load ptr, ptr %3, align 8
  %53 = getelementptr inbounds %struct.OSQPWorkspace_, ptr %52, i32 0, i32 13
  %54 = load ptr, ptr %53, align 8
  %55 = load ptr, ptr %3, align 8
  %56 = getelementptr inbounds %struct.OSQPWorkspace_, ptr %55, i32 0, i32 28
  %57 = load double, ptr %56, align 8
  %58 = fneg double %57
  %59 = load ptr, ptr %3, align 8
  %60 = getelementptr inbounds %struct.OSQPWorkspace_, ptr %59, i32 0, i32 7
  %61 = load ptr, ptr %60, align 8
  call void @OSQPVectorf_add_scaled(ptr noundef %51, double noundef 1.000000e+00, ptr noundef %54, double noundef %58, ptr noundef %61)
  br label %62

62:                                               ; preds = %48, %29
  ret void
}

; Function Attrs: nounwind uwtable
define void @update_xz_tilde(ptr noundef %0, i64 noundef %1) #0 {
  %3 = alloca ptr, align 8
  %4 = alloca i64, align 8
  %5 = alloca ptr, align 8
  store ptr %0, ptr %3, align 8
  store i64 %1, ptr %4, align 8
  %6 = load ptr, ptr %3, align 8
  %7 = getelementptr inbounds %struct.OSQPSolver, ptr %6, i32 0, i32 3
  %8 = load ptr, ptr %7, align 8
  store ptr %8, ptr %5, align 8
  %9 = load ptr, ptr %3, align 8
  call void @compute_rhs(ptr noundef %9)
  %10 = load ptr, ptr %5, align 8
  %11 = getelementptr inbounds %struct.OSQPWorkspace_, ptr %10, i32 0, i32 1
  %12 = load ptr, ptr %11, align 8
  %13 = getelementptr inbounds %struct.linsys_solver, ptr %12, i32 0, i32 2
  %14 = load ptr, ptr %13, align 8
  %15 = load ptr, ptr %5, align 8
  %16 = getelementptr inbounds %struct.OSQPWorkspace_, ptr %15, i32 0, i32 1
  %17 = load ptr, ptr %16, align 8
  %18 = load ptr, ptr %5, align 8
  %19 = getelementptr inbounds %struct.OSQPWorkspace_, ptr %18, i32 0, i32 9
  %20 = load ptr, ptr %19, align 8
  %21 = load i64, ptr %4, align 8
  %22 = call i64 %14(ptr noundef %17, ptr noundef %20, i64 noundef %21)
  ret void
}