; Function Attrs: nounwind uwtable
define void @update_xz_tilde(ptr noundef readonly captures(none) %0, i64 noundef %1) local_unnamed_addr #0 {
  %3 = getelementptr inbounds nuw i8, ptr %0, i64 24
  %4 = load ptr, ptr %3, align 8
  %.val = load ptr, ptr %0, align 8
  %5 = getelementptr inbounds nuw i8, ptr %4, i64 80
  %6 = load ptr, ptr %5, align 8
  %7 = getelementptr inbounds nuw i8, ptr %.val, i64 80
  %8 = load double, ptr %7, align 8
  %9 = getelementptr inbounds nuw i8, ptr %4, i64 96
  %10 = load ptr, ptr %9, align 8
  %11 = load ptr, ptr %4, align 8
  %12 = getelementptr inbounds nuw i8, ptr %11, i64 32
  %13 = load ptr, ptr %12, align 8
  tail call void @OSQPVectorf_add_scaled(ptr noundef %6, double noundef %8, ptr noundef %10, double noundef -1.000000e+00, ptr noundef %13) #9
  %14 = getelementptr inbounds nuw i8, ptr %.val, i64 72
  %15 = load i64, ptr %14, align 8
  %.not.i = icmp eq i64 %15, 0
  %16 = getelementptr inbounds nuw i8, ptr %4, i64 88
  %17 = load ptr, ptr %16, align 8
  br i1 %.not.i, label %26, label %18

18:                                               ; preds = %2
  %19 = getelementptr inbounds nuw i8, ptr %4, i64 32
  %20 = load ptr, ptr %19, align 8
  %21 = getelementptr inbounds nuw i8, ptr %4, i64 56
  %22 = load ptr, ptr %21, align 8
  tail call void @OSQPVectorf_ew_prod(ptr noundef %17, ptr noundef %20, ptr noundef %22) #9
  %23 = load ptr, ptr %16, align 8
  %24 = getelementptr inbounds nuw i8, ptr %4, i64 104
  %25 = load ptr, ptr %24, align 8
  tail call void @OSQPVectorf_add_scaled(ptr noundef %23, double noundef -1.000000e+00, ptr noundef %23, double noundef 1.000000e+00, ptr noundef %25) #9
  br label %compute_rhs.exit

26:                                               ; preds = %2
  %27 = getelementptr inbounds nuw i8, ptr %4, i64 104
  %28 = load ptr, ptr %27, align 8
  %29 = getelementptr inbounds nuw i8, ptr %4, i64 224
  %30 = load double, ptr %29, align 8
  %31 = fneg double %30
  %32 = getelementptr inbounds nuw i8, ptr %4, i64 56
  %33 = load ptr, ptr %32, align 8
  tail call void @OSQPVectorf_add_scaled(ptr noundef %17, double noundef 1.000000e+00, ptr noundef %28, double noundef %31, ptr noundef %33) #9
  br label %compute_rhs.exit

compute_rhs.exit:                                 ; preds = %18, %26
  %34 = getelementptr inbounds nuw i8, ptr %4, i64 8
  %35 = load ptr, ptr %34, align 8
  %36 = getelementptr inbounds nuw i8, ptr %35, i64 16
  %37 = load ptr, ptr %36, align 8
  %38 = getelementptr inbounds nuw i8, ptr %4, i64 72
  %39 = load ptr, ptr %38, align 8
  %40 = tail call i64 %37(ptr noundef %35, ptr noundef %39, i64 noundef %1) #9
  ret void
}